target datalayout = "e-m:e-p270:32:32-p271:32:32-p272:64:64-i64:64-i128:128-f80:128-n8:16:32:64-S128"
target triple = "x86_64-pc-linux-gnu"

%struct.AVFilterLink = type { ptr, ptr, ptr, ptr, i32, i32, i32, i32, %struct.AVRational, i32, i32, i32, %struct.AVChannelLayout, %struct.AVRational, ptr, i32, %struct.AVFilterFormatsConfig, %struct.AVFilterFormatsConfig }
%struct.AVChannelLayout = type { i32, i32, %union.anon.1, ptr }
%union.anon.1 = type { i64 }
%struct.AVRational = type { i32, i32 }
%struct.AVFilterFormatsConfig = type { ptr, ptr, ptr, ptr, ptr }
%struct.AVFilterContext = type { ptr, ptr, ptr, ptr, ptr, i32, ptr, ptr, i32, ptr, ptr, i32, i32, ptr, ptr, ptr, ptr, i32, ptr, i32, i32 }
%struct.VibranceContext = type { ptr, float, [3 x float], [3 x float], i32, i32, i32, [4 x i8], ptr }
%struct.AVPixFmtDescriptor = type { ptr, i8, i8, i8, i64, [4 x %struct.AVComponentDescriptor], ptr }
%struct.AVComponentDescriptor = type { i32, i32, i32, i32, i32 }

; Function Attrs: cold nounwind optsize uwtable
define internal i32 @config_input(ptr noundef %0) #2 {
  %2 = alloca ptr, align 8
  %3 = alloca ptr, align 8
  %4 = alloca ptr, align 8
  %5 = alloca ptr, align 8
  %6 = alloca i32, align 4
  store ptr %0, ptr %2, align 8, !tbaa !4
  call void @llvm.lifetime.start.p0(i64 8, ptr %3) #9
  %7 = load ptr, ptr %2, align 8, !tbaa !4
  %8 = getelementptr inbounds nuw %struct.AVFilterLink, ptr %7, i32 0, i32 2
  %9 = load ptr, ptr %8, align 8, !tbaa !11
  store ptr %9, ptr %3, align 8, !tbaa !23
  call void @llvm.lifetime.start.p0(i64 8, ptr %4) #9
  %10 = load ptr, ptr %3, align 8, !tbaa !23
  %11 = getelementptr inbounds nuw %struct.AVFilterContext, ptr %10, i32 0, i32 9
  %12 = load ptr, ptr %11, align 8, !tbaa !34
  store ptr %12, ptr %4, align 8, !tbaa !35
  call void @llvm.lifetime.start.p0(i64 8, ptr %5) #9
  %13 = load ptr, ptr %2, align 8, !tbaa !4
  %14 = getelementptr inbounds nuw %struct.AVFilterLink, ptr %13, i32 0, i32 5
  %15 = load i32, ptr %14, align 4, !tbaa !52
  %16 = call ptr @av_pix_fmt_desc_get(i32 noundef %15)
  store ptr %16, ptr %5, align 8, !tbaa !53
  call void @llvm.lifetime.start.p0(i64 4, ptr %6) #9
  %17 = load ptr, ptr %5, align 8, !tbaa !53
  %18 = getelementptr inbounds nuw %struct.AVPixFmtDescriptor, ptr %17, i32 0, i32 4
  %19 = load i64, ptr %18, align 8, !tbaa !55
  %20 = and i64 %19, 16
  %21 = trunc i64 %20 to i32
  store i32 %21, ptr %6, align 4, !tbaa !51
  %22 = load ptr, ptr %5, align 8, !tbaa !53
  %23 = getelementptr inbounds nuw %struct.AVPixFmtDescriptor, ptr %22, i32 0, i32 1
  %24 = load i8, ptr %23, align 8, !tbaa !57
  %25 = zext i8 %24 to i32
  %26 = load ptr, ptr %4, align 8, !tbaa !35
  %27 = getelementptr inbounds nuw %struct.VibranceContext, ptr %26, i32 0, i32 5
  store i32 %25, ptr %27, align 8, !tbaa !58
  %28 = load ptr, ptr %2, align 8, !tbaa !4
  %29 = getelementptr inbounds nuw %struct.AVFilterLink, ptr %28, i32 0, i32 5
  %30 = load i32, ptr %29, align 4, !tbaa !52
  %31 = icmp eq i32 %30, 119
  br i1 %31, label %47, label %32

32:                                               ; preds = %1
  %33 = load ptr, ptr %2, align 8, !tbaa !4
  %34 = getelementptr inbounds nuw %struct.AVFilterLink, ptr %33, i32 0, i32 5
  %35 = load i32, ptr %34, align 4, !tbaa !52
  %36 = icmp eq i32 %35, 118
  br i1 %36, label %47, label %37

37:                                               ; preds = %32
  %38 = load ptr, ptr %2, align 8, !tbaa !4
  %39 = getelementptr inbounds nuw %struct.AVFilterLink, ptr %38, i32 0, i32 5
  %40 = load i32, ptr %39, align 4, !tbaa !52
  %41 = icmp eq i32 %40, 121
  br i1 %41, label %47, label %42

42:                                               ; preds = %37
  %43 = load ptr, ptr %2, align 8, !tbaa !4
  %44 = getelementptr inbounds nuw %struct.AVFilterLink, ptr %43, i32 0, i32 5
  %45 = load i32, ptr %44, align 4, !tbaa !52
  %46 = icmp eq i32 %45, 120
  br i1 %46, label %47, label %50

47:                                               ; preds = %42, %37, %32, %1
  %48 = load ptr, ptr %4, align 8, !tbaa !35
  %49 = getelementptr inbounds nuw %struct.VibranceContext, ptr %48, i32 0, i32 5
  store i32 4, ptr %49, align 8, !tbaa !58
  br label %50

50:                                               ; preds = %47, %42
  %51 = load ptr, ptr %5, align 8, !tbaa !53
  %52 = getelementptr inbounds nuw %struct.AVPixFmtDescriptor, ptr %51, i32 0, i32 5
  %53 = getelementptr inbounds [4 x %struct.AVComponentDescriptor], ptr %52, i64 0, i64 0
  %54 = getelementptr inbounds nuw %struct.AVComponentDescriptor, ptr %53, i32 0, i32 4
  %55 = load i32, ptr %54, align 8, !tbaa !59
  %56 = load ptr, ptr %4, align 8, !tbaa !35
  %57 = getelementptr inbounds nuw %struct.VibranceContext, ptr %56, i32 0, i32 6
  store i32 %55, ptr %57, align 4, !tbaa !61
  %58 = load ptr, ptr %4, align 8, !tbaa !35
  %59 = getelementptr inbounds nuw %struct.VibranceContext, ptr %58, i32 0, i32 6
  %60 = load i32, ptr %59, align 4, !tbaa !61
  %61 = icmp sle i32 %60, 8
  %62 = select i1 %61, ptr @vibrance_slice8, ptr @vibrance_slice16
  %63 = load ptr, ptr %4, align 8, !tbaa !35
  %64 = getelementptr inbounds nuw %struct.VibranceContext, ptr %63, i32 0, i32 8
  store ptr %62, ptr %64, align 8, !tbaa !42
  %65 = load i32, ptr %6, align 4, !tbaa !51
  %66 = icmp ne i32 %65, 0
  br i1 %66, label %75, label %67

67:                                               ; preds = %50
  %68 = load ptr, ptr %4, align 8, !tbaa !35
  %69 = getelementptr inbounds nuw %struct.VibranceContext, ptr %68, i32 0, i32 6
  %70 = load i32, ptr %69, align 4, !tbaa !61
  %71 = icmp sle i32 %70, 8
  %72 = select i1 %71, ptr @vibrance_slice8p, ptr @vibrance_slice16p
  %73 = load ptr, ptr %4, align 8, !tbaa !35
  %74 = getelementptr inbounds nuw %struct.VibranceContext, ptr %73, i32 0, i32 8
  store ptr %72, ptr %74, align 8, !tbaa !42
  br label %75

75:                                               ; preds = %67, %50
  %76 = load ptr, ptr %4, align 8, !tbaa !35
  %77 = getelementptr inbounds nuw %struct.VibranceContext, ptr %76, i32 0, i32 7
  %78 = getelementptr inbounds [4 x i8], ptr %77, i64 0, i64 0
  %79 = load ptr, ptr %2, align 8, !tbaa !4
  %80 = getelementptr inbounds nuw %struct.AVFilterLink, ptr %79, i32 0, i32 5
  %81 = load i32, ptr %80, align 4, !tbaa !52
  %82 = call i32 @ff_fill_rgba_map(ptr noundef %78, i32 noundef %81)
  call void @llvm.lifetime.end.p0(i64 4, ptr %6) #9
  call void @llvm.lifetime.end.p0(i64 8, ptr %5) #9
  call void @llvm.lifetime.end.p0(i64 8, ptr %4) #9
  call void @llvm.lifetime.end.p0(i64 8, ptr %3) #9
  ret i32 0
}